target datalayout = "e-m:e-p270:32:32-p271:32:32-p272:64:64-i64:64-i128:128-f80:128-n8:16:32:64-S128"
target triple = "x86_64-pc-linux-gnu"

%struct.APK_DATA_st = type { ptr, i64, i32 }

@mainctx = internal global ptr null, align 8
@.str.28 = private unnamed_addr constant [34 x i8] c"../openssl/test/evp_extra_test2.c\00", align 1
@.str.69 = private unnamed_addr constant [2 x i8] c"0\00", align 1
@.str.182 = private unnamed_addr constant [75 x i8] c"pkey = d2i_AutoPrivateKey_ex(NULL, &pdata, keydata[0].size, mainctx, NULL)\00", align 1
@.str.185 = private unnamed_addr constant [67 x i8] c"EVP_PKEY_export(NULL, EVP_PKEY_KEYPAIR, test_pkey_export_cb, NULL)\00", align 1
@.str.186 = private unnamed_addr constant [52 x i8] c"EVP_PKEY_export(pkey, EVP_PKEY_KEYPAIR, NULL, NULL)\00", align 1

; Function Attrs: nounwind uwtable
define internal i32 @test_pkey_export_null() #0 {
  %1 = alloca ptr, align 8
  %2 = alloca i32, align 4
  %3 = alloca ptr, align 8
  call void @llvm.lifetime.start.p0(i64 8, ptr %1) #7
  store ptr null, ptr %1, align 8, !tbaa !13
  call void @llvm.lifetime.start.p0(i64 4, ptr %2) #7
  store i32 0, ptr %2, align 4, !tbaa !11
  call void @llvm.lifetime.start.p0(i64 8, ptr %3) #7
  %4 = load ptr, ptr @keydata, align 16, !tbaa !17
  store ptr %4, ptr %3, align 8, !tbaa !21
  %5 = load i64, ptr getelementptr inbounds nuw (%struct.APK_DATA_st, ptr @keydata, i32 0, i32 1), align 8, !tbaa !22
  %6 = load ptr, ptr @mainctx, align 8, !tbaa !4
  %7 = call ptr @d2i_AutoPrivateKey_ex(ptr noundef null, ptr noundef %3, i64 noundef %5, ptr noundef %6, ptr noundef null)
  store ptr %7, ptr %1, align 8, !tbaa !13
  %8 = call i32 @test_ptr(ptr noundef @.str.28, i32 noundef 1243, ptr noundef @.str.182, ptr noundef %7)
  %9 = icmp ne i32 %8, 0
  br i1 %9, label %10, label %19

10:                                               ; preds = %0
  %11 = call i32 @EVP_PKEY_export(ptr noundef null, i32 noundef 135, ptr noundef @test_pkey_export_cb, ptr noundef null)
  %12 = call i32 @test_int_eq(ptr noundef @.str.28, i32 noundef 1245, ptr noundef @.str.185, ptr noundef @.str.69, i32 noundef %11, i32 noundef 0)
  %13 = icmp ne i32 %12, 0
  br i1 %13, label %14, label %19

14:                                               ; preds = %10
  %15 = load ptr, ptr %1, align 8, !tbaa !13
  %16 = call i32 @EVP_PKEY_export(ptr noundef %15, i32 noundef 135, ptr noundef null, ptr noundef null)
  %17 = call i32 @test_int_eq(ptr noundef @.str.28, i32 noundef 1246, ptr noundef @.str.186, ptr noundef @.str.69, i32 noundef %16, i32 noundef 0)
  %18 = icmp ne i32 %17, 0
  br label %19

19:                                               ; preds = %14, %10, %0
  %20 = phi i1 [ false, %10 ], [ false, %0 ], [ %18, %14 ]
  %21 = zext i1 %20 to i32
  store i32 %21, ptr %2, align 4, !tbaa !11
  %22 = load ptr, ptr %1, align 8, !tbaa !13
  call void @EVP_PKEY_free(ptr noundef %22)
  %23 = load i32, ptr %2, align 4, !tbaa !11
  call void @llvm.lifetime.end.p0(i64 8, ptr %3) #7
  call void @llvm.lifetime.end.p0(i64 4, ptr %2) #7
  call void @llvm.lifetime.end.p0(i64 8, ptr %1) #7
  ret i32 %23
}