; Function Attrs: nounwind uwtable
define internal range(i32 0, 2) i32 @test_pkey_export_null() #0 {
  %1 = alloca ptr, align 8
  call void @llvm.lifetime.start.p0(i64 8, ptr nonnull %1) #7
  store ptr @kExampleRSAKeyDER, ptr %1, align 8, !tbaa !18
  %2 = load ptr, ptr @mainctx, align 8, !tbaa !4
  %3 = call ptr @d2i_AutoPrivateKey_ex(ptr noundef null, ptr noundef nonnull %1, i64 noundef 608, ptr noundef %2, ptr noundef null) #7
  %4 = call i32 @test_ptr(ptr noundef nonnull @.str.28, i32 noundef 1243, ptr noundef nonnull @.str.182, ptr noundef %3) #7
  %.not = icmp eq i32 %4, 0
  br i1 %.not, label %13, label %5

5:                                                ; preds = %0
  %6 = call i32 @EVP_PKEY_export(ptr noundef null, i32 noundef 135, ptr noundef nonnull @test_pkey_export_cb, ptr noundef null) #7
  %7 = call i32 @test_int_eq(ptr noundef nonnull @.str.28, i32 noundef 1245, ptr noundef nonnull @.str.185, ptr noundef nonnull @.str.69, i32 noundef %6, i32 noundef 0) #7
  %.not2 = icmp eq i32 %7, 0
  br i1 %.not2, label %13, label %8

8:                                                ; preds = %5
  %9 = call i32 @EVP_PKEY_export(ptr noundef %3, i32 noundef 135, ptr noundef null, ptr noundef null) #7
  %10 = call i32 @test_int_eq(ptr noundef nonnull @.str.28, i32 noundef 1246, ptr noundef nonnull @.str.186, ptr noundef nonnull @.str.69, i32 noundef %9, i32 noundef 0) #7
  %11 = icmp ne i32 %10, 0
  %12 = zext i1 %11 to i32
  br label %13

13:                                               ; preds = %8, %5, %0
  %14 = phi i32 [ 0, %5 ], [ 0, %0 ], [ %12, %8 ]
  call void @EVP_PKEY_free(ptr noundef %3) #7
  call void @llvm.lifetime.end.p0(i64 8, ptr nonnull %1) #7
  ret i32 %14
}